target datalayout = "e-m:e-p270:32:32-p271:32:32-p272:64:64-i64:64-i128:128-f80:128-n8:16:32:64-S128"
target triple = "x86_64-pc-linux-gnu"

%struct.H5D_t = type { %struct.H5O_loc_t, %struct.H5G_name_t, ptr }
%struct.H5O_loc_t = type { ptr, i64, i8 }
%struct.H5G_name_t = type { ptr, ptr, i32 }
%struct.H5D_shared_t = type { i64, i8, i64, ptr, ptr, i64, i64, %struct.H5D_dcpl_cache_t, %struct.H5O_layout_t, i8, i32, [32 x i64], [32 x i64], [32 x i64], %struct.anon.6, %struct.H5D_append_flush_t, ptr, ptr }
%struct.H5D_dcpl_cache_t = type { %struct.H5O_fill_t, %struct.H5O_pline_t, %struct.H5O_efl_t }
%struct.H5O_fill_t = type { %struct.H5O_shared_t, i32, ptr, i64, ptr, i32, i32, i8 }
%struct.H5O_shared_t = type { i32, ptr, i32, %union.anon }
%union.anon = type { %struct.H5O_mesg_loc_t }
%struct.H5O_mesg_loc_t = type { i32, i64 }
%struct.H5O_pline_t = type { %struct.H5O_shared_t, i32, i64, i64, ptr }
%struct.H5O_efl_t = type { i64, i64, i64, ptr }
%struct.H5O_layout_t = type { i32, i32, ptr, %union.anon.0, %struct.H5O_storage_t }
%union.anon.0 = type { %struct.H5O_layout_chunk_t }
%struct.H5O_layout_chunk_t = type { i32, i8, i32, [33 x i32], i32, i32, i64, i64, [33 x i64], [33 x i64], [33 x i64], [33 x i64], %union.anon.1 }
%union.anon.1 = type { %struct.H5O_layout_chunk_earray_t }
%struct.H5O_layout_chunk_earray_t = type { %struct.anon.2, i32, [33 x i32], [33 x i64], [33 x i64] }
%struct.anon.2 = type { i8, i8, i8, i8, i8 }
%struct.H5O_storage_t = type { i32, %union.anon.4 }
%union.anon.4 = type { %struct.H5O_storage_virtual_t }
%struct.H5O_storage_virtual_t = type { %struct.H5HG_t, i64, ptr, i64, [32 x i64], i32, i64, i64, i64, i8 }
%struct.H5HG_t = type { i64, i64 }
%struct.anon.6 = type { %struct.H5D_rdcdc_t, %struct.H5D_rdcc_t }
%struct.H5D_rdcdc_t = type { ptr, i64, i64, i64, i8 }
%struct.H5D_rdcc_t = type { %struct.anon.7, i64, i64, double, ptr, ptr, ptr, i64, i32, %struct.H5D_chunk_cached_t, ptr, ptr, ptr, ptr, [32 x i64], [32 x i64], [32 x i32] }
%struct.anon.7 = type { i32, i32, i32, i32 }
%struct.H5D_chunk_cached_t = type { i8, [33 x i64], i64, i32, i64, i32 }
%struct.H5D_append_flush_t = type { i32, [32 x i64], ptr, ptr }
%struct.H5O_storage_compact_t = type { i8, i64, ptr }
%struct.H5D_fill_buf_info_t = type { ptr, ptr, ptr, ptr, ptr, ptr, ptr, ptr, i64, i8, ptr, i64, ptr, ptr, i64, i64, i64, i64, i8 }

@H5D_init_g = external global i8, align 1
@H5_libterm_g = external global i8, align 1
@.str = private unnamed_addr constant [104 x i8] c"generated/home/dtcxzyw/WorkSpace/Projects/compilers/llvm-opt-benchmark/bench/hdf5/hdf5/src/H5Dcompact.c\00", align 1
@__func__.H5D__compact_fill = private unnamed_addr constant [18 x i8] c"H5D__compact_fill\00", align 1
@H5E_DATASET_g = external global i64, align 8
@H5E_CANTINIT_g = external global i64, align 8
@.str.1 = private unnamed_addr constant [34 x i8] c"can't initialize fill buffer info\00", align 1
@H5E_CANTCONVERT_g = external global i64, align 8
@.str.2 = private unnamed_addr constant [31 x i8] c"can't refill fill value buffer\00", align 1
@H5E_CANTFREE_g = external global i64, align 8
@.str.3 = private unnamed_addr constant [31 x i8] c"Can't release fill buffer info\00", align 1

; Function Attrs: nounwind uwtable
define i32 @H5D__compact_fill(ptr noundef %0) #0 {
  %2 = alloca ptr, align 8
  %3 = alloca %struct.H5D_fill_buf_info_t, align 8
  %4 = alloca i8, align 1
  %5 = alloca i32, align 4
  %6 = alloca i8, align 1
  store ptr %0, ptr %2, align 8, !tbaa !8
  call void @llvm.lifetime.start.p0(i64 152, ptr %3) #6
  call void @llvm.lifetime.start.p0(i64 1, ptr %4) #6
  store i8 0, ptr %4, align 1, !tbaa !12
  call void @llvm.lifetime.start.p0(i64 4, ptr %5) #6
  store i32 0, ptr %5, align 4, !tbaa !10
  call void @llvm.lifetime.start.p0(i64 1, ptr %6) #6
  store i8 0, ptr %6, align 1, !tbaa !12
  %7 = load i8, ptr @H5D_init_g, align 1, !tbaa !12, !range !14, !noundef !15
  %8 = trunc i8 %7 to i1
  br i1 %8, label %13, label %9

9:                                                ; preds = %1
  %10 = load i8, ptr @H5_libterm_g, align 1, !tbaa !12, !range !14, !noundef !15
  %11 = trunc i8 %10 to i1
  %12 = xor i1 %11, true
  br label %13

13:                                               ; preds = %9, %1
  %14 = phi i1 [ true, %1 ], [ %12, %9 ]
  %15 = xor i1 %14, true
  %16 = xor i1 %15, true
  %17 = zext i1 %16 to i32
  %18 = sext i32 %17 to i64
  %19 = call i64 @llvm.expect.i64(i64 %18, i64 1)
  %20 = icmp ne i64 %19, 0
  br i1 %20, label %21, label %122

21:                                               ; preds = %13
  %22 = load ptr, ptr %2, align 8, !tbaa !8
  %23 = getelementptr inbounds nuw %struct.H5D_t, ptr %22, i32 0, i32 2
  %24 = load ptr, ptr %23, align 8, !tbaa !16
  %25 = getelementptr inbounds nuw %struct.H5D_shared_t, ptr %24, i32 0, i32 8
  %26 = getelementptr inbounds nuw %struct.H5O_layout_t, ptr %25, i32 0, i32 4
  %27 = getelementptr inbounds nuw %struct.H5O_storage_t, ptr %26, i32 0, i32 1
  %28 = getelementptr inbounds nuw %struct.H5O_storage_compact_t, ptr %27, i32 0, i32 2
  %29 = load ptr, ptr %28, align 8, !tbaa !54
  %30 = load ptr, ptr %2, align 8, !tbaa !8
  %31 = getelementptr inbounds nuw %struct.H5D_t, ptr %30, i32 0, i32 2
  %32 = load ptr, ptr %31, align 8, !tbaa !16
  %33 = getelementptr inbounds nuw %struct.H5D_shared_t, ptr %32, i32 0, i32 7
  %34 = getelementptr inbounds nuw %struct.H5D_dcpl_cache_t, ptr %33, i32 0, i32 0
  %35 = load ptr, ptr %2, align 8, !tbaa !8
  %36 = getelementptr inbounds nuw %struct.H5D_t, ptr %35, i32 0, i32 2
  %37 = load ptr, ptr %36, align 8, !tbaa !16
  %38 = getelementptr inbounds nuw %struct.H5D_shared_t, ptr %37, i32 0, i32 3
  %39 = load ptr, ptr %38, align 8, !tbaa !53
  %40 = load ptr, ptr %2, align 8, !tbaa !8
  %41 = getelementptr inbounds nuw %struct.H5D_t, ptr %40, i32 0, i32 2
  %42 = load ptr, ptr %41, align 8, !tbaa !16
  %43 = getelementptr inbounds nuw %struct.H5D_shared_t, ptr %42, i32 0, i32 8
  %44 = getelementptr inbounds nuw %struct.H5O_layout_t, ptr %43, i32 0, i32 4
  %45 = getelementptr inbounds nuw %struct.H5O_storage_t, ptr %44, i32 0, i32 1
  %46 = getelementptr inbounds nuw %struct.H5O_storage_compact_t, ptr %45, i32 0, i32 1
  %47 = load i64, ptr %46, align 8, !tbaa !54
  %48 = call i32 @H5D__fill_init(ptr noundef %3, ptr noundef %29, ptr noundef null, ptr noundef null, ptr noundef null, ptr noundef null, ptr noundef %34, ptr noundef %39, i64 noundef 0, i64 noundef %47)
  %49 = icmp slt i32 %48, 0
  br i1 %49, label %50, label %69

50:                                               ; preds = %21
  br label %51

51:                                               ; preds = %50
  br label %52

52:                                               ; preds = %51
  br label %53

53:                                               ; preds = %52
  %54 = load i64, ptr @H5E_DATASET_g, align 8, !tbaa !49
  %55 = load i64, ptr @H5E_CANTINIT_g, align 8, !tbaa !49
  %56 = call i32 (ptr, ptr, i32, i64, i64, ptr, ...) @H5E_printf_stack(ptr noundef @.str, ptr noundef @__func__.H5D__compact_fill, i32 noundef 133, i64 noundef %54, i64 noundef %55, ptr noundef @.str.1)
  br label %57

57:                                               ; preds = %53
  br label %58

58:                                               ; preds = %57
  store i8 1, ptr %6, align 1, !tbaa !12
  %59 = load i8, ptr %6, align 1, !tbaa !12, !range !14, !noundef !15
  %60 = trunc i8 %59 to i1
  %61 = zext i1 %60 to i8
  store i8 %61, ptr %6, align 1, !tbaa !12
  br label %62

62:                                               ; preds = %58
  br label %63

63:                                               ; preds = %62
  br label %64

64:                                               ; preds = %63
  store i32 -1, ptr %5, align 4, !tbaa !10
  br label %99

65:                                               ; No predecessors!
  br label %66

66:                                               ; preds = %65
  br label %67

67:                                               ; preds = %66
  br label %68

68:                                               ; preds = %67
  br label %69

69:                                               ; preds = %68, %21
  store i8 1, ptr %4, align 1, !tbaa !12
  %70 = getelementptr inbounds nuw %struct.H5D_fill_buf_info_t, ptr %3, i32 0, i32 18
  %71 = load i8, ptr %70, align 8, !tbaa !85, !range !14, !noundef !15
  %72 = trunc i8 %71 to i1
  br i1 %72, label %73, label %98

73:                                               ; preds = %69
  %74 = getelementptr inbounds nuw %struct.H5D_fill_buf_info_t, ptr %3, i32 0, i32 17
  %75 = load i64, ptr %74, align 8, !tbaa !88
  %76 = call i32 @H5D__fill_refill_vl(ptr noundef %3, i64 noundef %75)
  %77 = icmp slt i32 %76, 0
  br i1 %77, label %78, label %97

78:                                               ; preds = %73
  br label %79

79:                                               ; preds = %78
  br label %80

80:                                               ; preds = %79
  br label %81

81:                                               ; preds = %80
  %82 = load i64, ptr @H5E_DATASET_g, align 8, !tbaa !49
  %83 = load i64, ptr @H5E_CANTCONVERT_g, align 8, !tbaa !49
  %84 = call i32 (ptr, ptr, i32, i64, i64, ptr, ...) @H5E_printf_stack(ptr noundef @.str, ptr noundef @__func__.H5D__compact_fill, i32 noundef 140, i64 noundef %82, i64 noundef %83, ptr noundef @.str.2)
  br label %85

85:                                               ; preds = %81
  br label %86

86:                                               ; preds = %85
  store i8 1, ptr %6, align 1, !tbaa !12
  %87 = load i8, ptr %6, align 1, !tbaa !12, !range !14, !noundef !15
  %88 = trunc i8 %87 to i1
  %89 = zext i1 %88 to i8
  store i8 %89, ptr %6, align 1, !tbaa !12
  br label %90

90:                                               ; preds = %86
  br label %91

91:                                               ; preds = %90
  br label %92

92:                                               ; preds = %91
  store i32 -1, ptr %5, align 4, !tbaa !10
  br label %99

93:                                               ; No predecessors!
  br label %94

94:                                               ; preds = %93
  br label %95

95:                                               ; preds = %94
  br label %96

96:                                               ; preds = %95
  br label %97

97:                                               ; preds = %96, %73
  br label %98

98:                                               ; preds = %97, %69
  br label %99

99:                                               ; preds = %98, %92, %64
  %100 = load i8, ptr %4, align 1, !tbaa !12, !range !14, !noundef !15
  %101 = trunc i8 %100 to i1
  br i1 %101, label %102, label %121

102:                                              ; preds = %99
  %103 = call i32 @H5D__fill_term(ptr noundef %3)
  %104 = icmp slt i32 %103, 0
  br i1 %104, label %105, label %121

105:                                              ; preds = %102
  br label %106

106:                                              ; preds = %105
  br label %107

107:                                              ; preds = %106
  br label %108

108:                                              ; preds = %107
  %109 = load i64, ptr @H5E_DATASET_g, align 8, !tbaa !49
  %110 = load i64, ptr @H5E_CANTFREE_g, align 8, !tbaa !49
  %111 = call i32 (ptr, ptr, i32, i64, i64, ptr, ...) @H5E_printf_stack(ptr noundef @.str, ptr noundef @__func__.H5D__compact_fill, i32 noundef 145, i64 noundef %109, i64 noundef %110, ptr noundef @.str.3)
  br label %112

112:                                              ; preds = %108
  br label %113

113:                                              ; preds = %112
  store i8 1, ptr %6, align 1, !tbaa !12
  %114 = load i8, ptr %6, align 1, !tbaa !12, !range !14, !noundef !15
  %115 = trunc i8 %114 to i1
  %116 = zext i1 %115 to i8
  store i8 %116, ptr %6, align 1, !tbaa !12
  br label %117

117:                                              ; preds = %113
  br label %118

118:                                              ; preds = %117
  store i32 -1, ptr %5, align 4, !tbaa !10
  br label %119

119:                                              ; preds = %118
  br label %120

120:                                              ; preds = %119
  br label %121

121:                                              ; preds = %120, %102, %99
  br label %122

122:                                              ; preds = %121, %13
  %123 = load i32, ptr %5, align 4, !tbaa !10
  call void @llvm.lifetime.end.p0(i64 1, ptr %6) #6
  call void @llvm.lifetime.end.p0(i64 4, ptr %5) #6
  call void @llvm.lifetime.end.p0(i64 1, ptr %4) #6
  call void @llvm.lifetime.end.p0(i64 152, ptr %3) #6
  ret i32 %123
}