; Function Attrs: nounwind uwtable
define range(i32 -1, 1) i32 @H5D__compact_fill(ptr noundef readonly captures(none) %0) local_unnamed_addr #0 {
  %2 = alloca %struct.H5D_fill_buf_info_t, align 8
  call void @llvm.lifetime.start.p0(i64 152, ptr nonnull %2) #8
  %3 = load i8, ptr @H5D_init_g, align 1, !tbaa !3, !range !7, !noundef !8
  %4 = trunc nuw i8 %3 to i1
  %5 = load i8, ptr @H5_libterm_g, align 1, !range !7
  %6 = trunc nuw i8 %5 to i1
  %7 = xor i1 %6, true
  %8 = select i1 %4, i1 true, i1 %7
  br i1 %8, label %9, label %45, !prof !9

9:                                                ; preds = %1
  %10 = getelementptr inbounds nuw i8, ptr %0, i64 48
  %11 = load ptr, ptr %10, align 8, !tbaa !10
  %12 = getelementptr inbounds nuw i8, ptr %11, i64 2184
  %13 = load ptr, ptr %12, align 8, !tbaa !51
  %14 = getelementptr inbounds nuw i8, ptr %11, i64 56
  %15 = getelementptr inbounds nuw i8, ptr %11, i64 24
  %16 = load ptr, ptr %15, align 8, !tbaa !50
  %17 = getelementptr inbounds nuw i8, ptr %11, i64 2176
  %18 = load i64, ptr %17, align 8, !tbaa !51
  %19 = call i32 @H5D__fill_init(ptr noundef nonnull %2, ptr noundef %13, ptr noundef null, ptr noundef null, ptr noundef null, ptr noundef null, ptr noundef nonnull %14, ptr noundef %16, i64 noundef 0, i64 noundef %18) #8
  %20 = icmp sgt i32 %19, -1
  br i1 %20, label %21, label %34

21:                                               ; preds = %9
  %22 = getelementptr inbounds nuw i8, ptr %2, i64 144
  %23 = load i8, ptr %22, align 8, !tbaa !77, !range !7, !noundef !8
  %24 = trunc nuw i8 %23 to i1
  br i1 %24, label %25, label %38

25:                                               ; preds = %21
  %26 = getelementptr inbounds nuw i8, ptr %2, i64 136
  %27 = load i64, ptr %26, align 8, !tbaa !80
  %28 = call i32 @H5D__fill_refill_vl(ptr noundef nonnull %2, i64 noundef %27) #8
  %29 = icmp slt i32 %28, 0
  br i1 %29, label %30, label %38

30:                                               ; preds = %25
  %31 = load i64, ptr @H5E_DATASET_g, align 8, !tbaa !48
  %32 = load i64, ptr @H5E_CANTCONVERT_g, align 8, !tbaa !48
  %33 = call i32 (ptr, ptr, i32, i64, i64, ptr, ...) @H5E_printf_stack(ptr noundef nonnull @.str, ptr noundef nonnull @__func__.H5D__compact_fill, i32 noundef 140, i64 noundef %31, i64 noundef %32, ptr noundef nonnull @.str.2) #8
  br label %38

34:                                               ; preds = %9
  %35 = load i64, ptr @H5E_DATASET_g, align 8, !tbaa !48
  %36 = load i64, ptr @H5E_CANTINIT_g, align 8, !tbaa !48
  %37 = call i32 (ptr, ptr, i32, i64, i64, ptr, ...) @H5E_printf_stack(ptr noundef nonnull @.str, ptr noundef nonnull @__func__.H5D__compact_fill, i32 noundef 133, i64 noundef %35, i64 noundef %36, ptr noundef nonnull @.str.1) #8
  br label %45

38:                                               ; preds = %21, %25, %30
  %.1.ph = phi i32 [ 0, %21 ], [ 0, %25 ], [ -1, %30 ]
  %39 = call i32 @H5D__fill_term(ptr noundef nonnull %2) #8
  %40 = icmp slt i32 %39, 0
  br i1 %40, label %41, label %45

41:                                               ; preds = %38
  %42 = load i64, ptr @H5E_DATASET_g, align 8, !tbaa !48
  %43 = load i64, ptr @H5E_CANTFREE_g, align 8, !tbaa !48
  %44 = call i32 (ptr, ptr, i32, i64, i64, ptr, ...) @H5E_printf_stack(ptr noundef nonnull @.str, ptr noundef nonnull @__func__.H5D__compact_fill, i32 noundef 145, i64 noundef %42, i64 noundef %43, ptr noundef nonnull @.str.3) #8
  br label %45

45:                                               ; preds = %34, %38, %41, %1
  %.0 = phi i32 [ -1, %41 ], [ %.1.ph, %38 ], [ -1, %34 ], [ 0, %1 ]
  call void @llvm.lifetime.end.p0(i64 152, ptr nonnull %2) #8
  ret i32 %.0
}